target datalayout = "e-m:e-p270:32:32-p271:32:32-p272:64:64-i64:64-i128:128-f80:128-n8:16:32:64-S128"
target triple = "x86_64-pc-linux-gnu"

%struct.StringPiece = type { ptr, i64 }

@.str.88 = private unnamed_addr constant [5 x i8] c"out2\00", align 1

; Function Attrs: mustprogress nounwind uwtable
define linkonce_odr dso_local noundef zeroext i1 @_ZNK11StringPieceeqERKS_(ptr noundef nonnull align 8 dereferenceable(16) %0, ptr noundef nonnull align 8 dereferenceable(16) %1) #5 comdat align 2 {
  %3 = alloca ptr, align 8
  %4 = alloca ptr, align 8
  store ptr %0, ptr %3, align 8
  store ptr %1, ptr %4, align 8
  %5 = load ptr, ptr %3, align 8
  %6 = getelementptr inbounds %struct.StringPiece, ptr %5, i32 0, i32 1
  %7 = load i64, ptr %6, align 8
  %8 = load ptr, ptr %4, align 8
  %9 = getelementptr inbounds %struct.StringPiece, ptr %8, i32 0, i32 1
  %10 = load i64, ptr %9, align 8
  %11 = icmp eq i64 %7, %10
  br i1 %11, label %12, label %22

12:                                               ; preds = %2
  %13 = getelementptr inbounds %struct.StringPiece, ptr %5, i32 0, i32 0
  %14 = load ptr, ptr %13, align 8
  %15 = load ptr, ptr %4, align 8
  %16 = getelementptr inbounds %struct.StringPiece, ptr %15, i32 0, i32 0
  %17 = load ptr, ptr %16, align 8
  %18 = getelementptr inbounds %struct.StringPiece, ptr %5, i32 0, i32 1
  %19 = load i64, ptr %18, align 8
  %20 = call i32 @memcmp(ptr noundef %14, ptr noundef %17, i64 noundef %19) #18
  %21 = icmp eq i32 %20, 0
  br label %22

22:                                               ; preds = %12, %2
  %23 = phi i1 [ false, %2 ], [ %21, %12 ]
  ret i1 %23
}

; Function Attrs: mustprogress nounwind uwtable
define linkonce_odr dso_local void @_ZN11StringPieceC2EPKc(ptr noundef nonnull align 8 dereferenceable(16) %0, ptr noundef %1) unnamed_addr #5 comdat align 2 {
  %3 = alloca ptr, align 8
  %4 = alloca ptr, align 8
  store ptr %0, ptr %3, align 8
  store ptr %1, ptr %4, align 8
  %5 = load ptr, ptr %3, align 8
  %6 = getelementptr inbounds %struct.StringPiece, ptr %5, i32 0, i32 0
  %7 = load ptr, ptr %4, align 8
  store ptr %7, ptr %6, align 8
  %8 = getelementptr inbounds %struct.StringPiece, ptr %5, i32 0, i32 1
  %9 = load ptr, ptr %4, align 8
  %10 = call i64 @strlen(ptr noundef %9) #18
  store i64 %10, ptr %8, align 8
  ret void
}

; Function Attrs: mustprogress uwtable
define internal noundef zeroext i1 @_ZNK12_GLOBAL__N_121BuildLogRecompactTest10IsPathDeadE11StringPiece(ptr noundef nonnull align 8 dereferenceable(288) %0, ptr %1, i64 %2) unnamed_addr #4 align 2 {
  %4 = alloca %struct.StringPiece, align 8
  %5 = alloca ptr, align 8
  %6 = alloca %struct.StringPiece, align 8
  %7 = getelementptr inbounds { ptr, i64 }, ptr %4, i32 0, i32 0
  store ptr %1, ptr %7, align 8
  %8 = getelementptr inbounds { ptr, i64 }, ptr %4, i32 0, i32 1
  store i64 %2, ptr %8, align 8
  store ptr %0, ptr %5, align 8
  call void @_ZN11StringPieceC2EPKc(ptr noundef nonnull align 8 dereferenceable(16) %6, ptr noundef @.str.88)
  %9 = call noundef zeroext i1 @_ZNK11StringPieceeqERKS_(ptr noundef nonnull align 8 dereferenceable(16) %4, ptr noundef nonnull align 8 dereferenceable(16) %6)
  ret i1 %9
}

; Function Attrs: uwtable
define internal noundef zeroext i1 @_ZThn280_NK12_GLOBAL__N_121BuildLogRecompactTest10IsPathDeadE11StringPiece(ptr noundef %0, ptr %1, i64 %2) unnamed_addr #0 align 2 {
  %4 = alloca %struct.StringPiece, align 8
  %5 = alloca ptr, align 8
  %6 = getelementptr inbounds { ptr, i64 }, ptr %4, i32 0, i32 0
  store ptr %1, ptr %6, align 8
  %7 = getelementptr inbounds { ptr, i64 }, ptr %4, i32 0, i32 1
  store i64 %2, ptr %7, align 8
  store ptr %0, ptr %5, align 8
  %8 = load ptr, ptr %5, align 8
  %9 = getelementptr inbounds i8, ptr %8, i64 -280
  %10 = getelementptr inbounds { ptr, i64 }, ptr %4, i32 0, i32 0
  %11 = load ptr, ptr %10, align 8
  %12 = getelementptr inbounds { ptr, i64 }, ptr %4, i32 0, i32 1
  %13 = load i64, ptr %12, align 8
  %14 = tail call noundef zeroext i1 @_ZNK12_GLOBAL__N_121BuildLogRecompactTest10IsPathDeadE11StringPiece(ptr noundef nonnull align 8 dereferenceable(288) %9, ptr %11, i64 %13)
  ret i1 %14
}